(dp0
S'Arbitration'
p1
I1
sS'incorporate'
p2
I1
sS'gt'
p3
I5
sS'copy'
p4
I1
sS'being'
p5
I1
sS'over'
p6
I2
sS'authors'
p7
I1
sS'mission'
p8
I1
sS'todayrsquos'
p9
I1
sS'Access'
p10
I5
sS'Epigenetics'
p11
I1
sS'Reuters'
p12
I1
sS'nbsp'
p13
I2
sS'world'
p14
I1
sS'Entomologist'
p15
I1
sS'Species'
p16
I1
sS'Celebrates'
p17
I1
sS'pleased'
p18
I1
sS'Resources'
p19
I4
sS'European'
p20
I1
sS'25'
p21
I1
sS'We'
p22
I1
sS'Association'
p23
I1
sS'News'
p24
I1
sS'readers'
p25
I1
sS'Subjects'
p26
I1
sS'fix'
p27
I1
sS'Privacy'
p28
I1
sS'Virus'
p29
I1
sS'tryvar'
p30
I1
sS'blog'
p31
I1
sS'Frequently'
p32
I1
sS'rich'
p33
I1
sS'Reportsreg'
p34
I1
sS'2015'
p35
I4
sS'announce'
p36
I1
sS'has'
p37
I2
sS'Journals'
p38
I4
sS'furthers'
p39
I1
sS'resources'
p40
I1
sS'Advertisers'
p41
I2
sS'Purchase'
p42
I1
sS'Evolution'
p43
I1
sS'around'
p44
I1
sS'means'
p45
I1
sS'very'
p46
I1
sS'Register'
p47
I1
sS'possible'
p48
I1
sS'soon'
p49
I1
sS'Reviews'
p50
I2
sS'academics'
p51
I1
sS'Ecology'
p52
I1
sS'124'
p53
I10
sS'Crohn\xe2\x80\x99s'
p54
I1
sS'Social'
p55
I3
sS'amp'
p56
I10
sS'Research'
p57
I1
sS'continued'
p58
I1
sS'comply'
p59
I1
sS'societies'
p60
I1
sS'Years'
p61
I1
sS'articles'
p62
I1
sS'Connect'
p63
I2
sS'America'
p64
I1
sS'functiondsidvar'
p65
I1
sS'Help'
p66
I2
sS'Sciences'
p67
I2
sS'New'
p68
I1
sS'Skip'
p69
I1
sS'Global'
p70
I1
sS'posts'
p71
I1
sS'Accessibility'
p72
I1
sS'OA'
p73
I1
sS'Cybersecurity'
p74
I1
sS'Annals'
p75
I1
sS'excellence'
p76
I2
sS'podocumentcreateElementscriptpotypetextjavascriptpoasynctrueposrchttpsapisgooglecomjsplusonejsvar'
p77
I1
sS'each'
p78
I1
sS'Partner'
p79
I1
sS'documentreadyfunctiondocumentReadywindowloadfunctionwindowLoaded'
p80
I1
sS'out'
p81
I2
sS'Find'
p82
I2
sS'Gateways'
p83
I1
sS'Impact'
p84
I1
sS'Index'
p85
I1
sS'Arts'
p86
I2
sS'Management'
p87
I2
sS'thinkers'
p88
I1
sS'260852641235486'
p89
I1
sS'Dates'
p90
I1
sS'Legal'
p91
I2
sS'growth'
p92
I1
sS'Dispatch'
p93
I1
sS'Heart'
p94
I1
sS'our'
p95
I4
sS'Microbiology'
p96
I3
sS'ourselves'
p97
I1
sS'best'
p98
I2
sS'subject'
p99
I1
sS'category'
p100
I1
sS'what'
p101
I1
sS'pageTrackergatgetTrackerUA518783111pageTrackertrackPageviewcatcherr'
p102
I1
sS'draws'
p103
I1
sS'unavailable'
p104
I1
sS'Services'
p105
I1
sS'prides'
p106
I1
sS'currently'
p107
I1
sS'Sponsors'
p108
I1
sS'research'
p109
I5
sS'content'
p110
I1
sS'Explore'
p111
I1
sS'Part'
p112
I1
sS'decade'
p113
I1
sS'Informatics'
p114
I1
sS'Agents'
p115
I2
sS'learned'
p116
I1
sS'increasing'
p117
I1
sS'Medical'
p118
I2
sS'Advanced'
p119
I1
sS'movement'
p120
I1
sS'publishers'
p121
I1
sS'we'
p122
I1
sS'Join'
p123
I1
sS'partners'
p124
I1
sS'scholarship'
p125
I1
sS'iftypeofdcsMultiTrackfunctiondcsMultiTrackfunction'
p126
I1
sS'University'
p127
I6
sS'Work'
p128
I1
sS'Dictionaries'
p129
I1
sS'Notice'
p130
I1
sS'Us'
p131
I5
sS'understanding'
p132
I1
sS'Contact'
p133
I3
sS'Pest'
p134
I1
sS'here'
p135
I1
sS'Were'
p136
I1
sS'Aesthetic'
p137
I1
sS'earliest'
p138
I1
sS'Options'
p139
I1
sS'publishes'
p140
I1
sS'both'
p141
I1
sS'about'
p142
I2
sS'service'
p143
I1
sS'Consciousness'
p144
I1
sS'Citation'
p145
I1
sS'Neuropsychopharmacology'
p146
I1
sS'pride'
p147
I1
sS'Sign'
p148
I1
sS'conversation'
p149
I1
sS'ranked'
p150
I1
sS'UK'
p151
I1
sS'leading'
p152
I1
sS'Home'
p153
I1
sS'top'
p154
I1
sS'Pathogens'
p155
I1
sS'among'
p156
I1
sS'major'
p157
I1
sS'Copyright'
p158
I1
sS'Humanities'
p159
I2
sS'Problems'
p160
I1
sS'English'
p161
I1
sS'community'
p162
I1
sS'one'
p163
I1
sS'Start'
p164
I1
sS'featured'
p165
I1
sS'Pharmacotherapy'
p166
I1
sS'Health'
p167
I2
sS'Universitys'
p168
I1
sS'Online'
p169
I3
sS'Medicine'
p170
I2
sS'Yeast'
p171
I1
sS'gateway'
p172
I1
sS'Careers'
p173
I2
sS'Nutrition'
p174
I1
sS'Tests'
p175
I1
sS'from'
p176
I2
sS'publishing'
p177
I3
sS'working'
p178
I1
sS'ordering'
p179
I1
sS'8000'
p180
I1
sS'support'
p181
I1
sS'Worldwide'
p182
I1
sS'Integrated'
p183
I1
sS'Thomson'
p184
I1
sS'Driven'
p185
I1
sS'Environmental'
p186
I2
sS'Insect'
p187
I1
sS'much'
p188
I1
sS'Cookie'
p189
I1
sS'Subscribers'
p190
I1
sS'heritage'
p191
I1
sS'Press'
p192
I4
sS'Neuroscience'
p193
I1
sS'OUP'
p194
I11
sS'Colitis'
p195
I1
sS'more'
p196
I6
sS'Search'
p197
I3
sS'Since'
p198
I1
sS'Science'
p199
I3
sS'Authors'
p200
I2
sS'All'
p201
I1
sS'Academic'
p202
I3
sS'American'
p203
I3
sS'part'
p204
I1
sS'Summitry'
p205
I1
sS'Learn'
p206
I1
sS'Basket'
p207
I1
sS'Letters'
p208
I1
sS'FEMS'
p209
I4
sS'than'
p210
I1
sS'behalf'
p211
I1
sS'insights'
p212
I1
sS'Media'
p213
I1
sS'10'
p214
I2
sS'main'
p215
I1
sS'Financial'
p216
I1
sS'Librarians'
p217
I2
sS'International'
p218
I2
sS'objective'
p219
I1
sS'access'
p220
I1
sS'sdocumentgetElementsByTagNamescript0sparentNodeinsertBeforepos'
p221
I1
sS'us'
p222
I1
sS'jsfjsdgetElementsByTagNames0phttptestdlocationhttphttpsifdgetElementByIdidjsdcreateElementsjsididjssrcpplatformtwittercomwidgetsjsfjsparentNodeinsertBeforejsfjsdocumentscripttwitterwjs'
p223
I1
sS'Society'
p224
I2
sS'Entomological'
p225
I1
sS'Books'
p226
I2
sS'awareness'
p227
I1
sS'Arthropod'
p228
I1
sS'Follow'
p229
I1
sS'problem'
p230
I1
sS'Societies'
p231
I2
sS'Open'
p232
I3
sS'Trusted'
p233
I1
sS'Cardiovascular'
p234
I1
sS'Aging'
p235
I1
sS'History'
p236
I1
sS'Oxford'
p237
I12
sS'Monist'
p238
I1
sS'eAlerts'
p239
I1
sS'Personal'
p240
I2
sS'expanding'
p241
I1
sS'partnership'
p242
I1
sS'Surgery'
p243
I1
sS'deep'
p244
I1
sS'pieces'
p245
I1
sS'Content'
p246
I1
sS'Regulation'
p247
I1
sS'itself'
p248
I1
sS'US'
p249
I1
sS'partner'
p250
I1
sS'Policy'
p251
I3
sS'Mathematics'
p252
I2
sS'You'
p253
I1
sS'education'
p254
I2
sS'trusted'
p255
I1
sS'Map'
p256
I1
sS'needs'
p257
I2
sS'requirements'
p258
I1
sS'worldwide'
p259
I1
sS'Journal'
p260
I14
sS'scholarly'
p261
I1
sS'RSS'
p262
I1
sS'quizzes'
p263
I1
sS'Important'
p264
I1
sS'Ordering'
p265
I1
sS'department'
p266
I2
sS'personalized'
p267
I1
sS'Law'
p268
I2
sS'Customer'
p269
I1
sS'200'
p270
I1
sS'About'
p271
I2
sS'OUPblog'
p272
I1
sS'committed'
p273
I1
sS'2001325991'
p274
I1
sS'Site'
p275
I1
sS'Disease'
p276
I1
sS'Dictionary'
p277
I1
sS'Questions'
p278
I1
sS'opinion'
p279
I1
sS'Pricing'
p280
I1
sS'funding'
p281
I1
sS'AZ'
p282
I2
sS'journals'
p283
I3
sS'Asked'
p284
I1
sS'View'
p285
I1
sS'Mammalian'
p286
I1
sS'tailored'
p287
I1
sS'Mammalogy'
p288
I1
sS'individual'
p289
I1
sS'Retirement'
p290
I1
sS'Discover'
p291
I1
sS'Community'
p292
I1
sS'academic'
p293
I2
sS'Economic'
p294
I2
sS'bodies'
p295
I1
sS'2005'
p296
I1
sS'functionvar'
p297
I1
sS'Entomology'
p298
I3
sS'researchers'
p299
I1
sS'latest'
p300
I1
s.