(dp0
S'Many'
p1
I3
sS'6px'
p2
I5
sS'NYT'
p3
I2
sS'Heights'
p4
I1
sS'Leap'
p5
I2
sS'0833'
p6
I1
sS'NYC'
p7
I3
sS'pageManagertrackingFireEventQueue'
p8
I1
sS'urlhttpcssnytcomimagesiconsbullet4x4gif'
p9
I1
sS'Nytimescom'
p10
I1
sS'under'
p11
I1
sS'\xe2\x80\x98She\xe2\x80\x99'
p12
I1
sS'h4sectionHeaderHome'
p13
I2
sS'suburban'
p14
I1
sS'Encounter'
p15
I1
sS'h3containsThe'
p16
I1
sS'envar'
p17
I1
sS'updates'
p18
I1
sS'Military'
p19
I1
sS'nrrequireforvar'
p20
I1
sS'abovebannerregion'
p21
I1
sS'fontweight'
p22
I13
sS'Go'
p23
I4
sS'force'
p24
I2
sS'Festival'
p25
I1
sS'0052'
p26
I1
sS'0051'
p27
I1
sS'likely'
p28
I1
sS'Tracker'
p29
I1
sS'Theater'
p30
I3
sS'blue'
p31
I1
sS'Game'
p32
I1
sS'new'
p33
I5
sS'Bigger'
p34
I1
sS'Ethicist'
p35
I1
sS'widget'
p36
I2
sS'wrapping'
p37
I1
sS'kicker'
p38
I4
sS'102'
p39
I1
sS'100'
p40
I1
sS'101'
p41
I2
sS'Tuesday'
p42
I1
sS'135rem'
p43
I1
sS'credit'
p44
I2
sS'Suspended'
p45
I1
sS'Affirms'
p46
I1
sS'military'
p47
I2
sS'sansserif'
p48
I3
sS'Privacy'
p49
I1
sS'Support'
p50
I1
sS'Jeb'
p51
I1
sS'Health'
p52
I4
sS'acolumn'
p53
I1
sS'Bamba\xe2\x80\x99'
p54
I2
sS'Abortions'
p55
I1
sS'foundationlegacymain'
p56
I1
sS'Electing'
p57
I1
sS'Parisian'
p58
I1
sS'Rule'
p59
I1
sS'HartmannReutersimagecropslargeHorizontal375height250width375urlhttpstatic01nytcomimages20151119world19ParisSS519ParisSS5largeHorizontal375jpgurlslideshow20151118worldeuropeanearlymorningraidnorthofpariss19ParisSS5htmlshorturlhttpnytims1lueIORapprovedforsyndicationtruedataid100000004044072slideurl19ParisSS2imagetypephotocaptionfullSoldiers'
p60
I1
sS'94'
p61
I1
sS'avisited'
p62
I2
sS'Header'
p63
I1
sS'View'
p64
I1
sS'Advertisers'
p65
I1
sS'A81817'
p66
I2
sS'addictive'
p67
I1
sS'Lie'
p68
I1
sS'organized'
p69
I1
sS'alinknythpBriefingNewsletterSignup'
p70
I1
sS'Bruni'
p71
I1
sS'Digital'
p72
I1
sS'Lord'
p73
I2
sS'worse'
p74
I1
sS'realEstateSearch'
p75
I1
sS'end'
p76
I1
sS'Watching'
p77
I1
sS'provide'
p78
I1
sS'very'
p79
I1
sS'nytfranklinArialsansserif'
p80
I1
sS'earlier'
p81
I1
sS'Getaway'
p82
I1
sS'texttransform'
p83
I6
sS'All'
p84
I2
sS'Appeals'
p85
I1
sS'homeowners'
p86
I1
sS'Japanese'
p87
I1
sS'Lloyd'
p88
I2
sS'diary'
p89
I1
sS'Ancient'
p90
I1
sS'Socially'
p91
I1
sS'over'
p92
I1
sS'CenturyOld'
p93
I1
sS'Surveillance'
p94
I1
sS'JOANNE'
p95
I1
sS'mayor'
p96
I1
sS'Fridaycontentkickersectionnameworldsubsectionnameeuropepublicationdate1447822800id100000004044078imageslideshowintroslidesdataid100000004044160slideurl19ParisSS9imagetypephotocaptionfullPolice'
p97
I1
sS'before'
p98
I2
sS'His'
p99
I2
sS'NYTABTESTengineisUserVariantwatchingNoScroll'
p100
I1
sS'Donation'
p101
I1
sS'Glimpses'
p102
I1
sS'400'
p103
I4
sS'videoFactory'
p104
I1
sS'hidden'
p105
I1
sS'raidcreditChristian'
p106
I1
sS'Him'
p107
I1
sS'SAT'
p108
I1
sS'Observatory'
p109
I2
sS'\xe2\x80\x9cmost'
p110
I1
sS'Berlin'
p111
I1
sS'Mobile'
p112
I2
sS'tentifrcallenreturn'
p113
I1
sS'Indie'
p114
I1
sS'arrested'
p115
I2
sS'went'
p116
I1
sS'Check'
p117
I1
sS'Millions'
p118
I1
sS'series'
p119
I1
sS'13px'
p120
I2
sS'group'
p121
I1
sS'Cyclone'
p122
I1
sS'BREEDEN'
p123
I1
sS'Styles'
p124
I2
sS'BEGIN'
p125
I1
sS'Holy'
p126
I1
sS'content'
p127
I1
sS'authgrowl'
p128
I1
sS'foundation'
p129
I1
sS'disputed'
p130
I1
sS'nythpElection2016Header'
p131
I12
sS'Work'
p132
I1
sS'standard'
p133
I1
sS'Cautiously'
p134
I1
sS'Starwood'
p135
I2
sS'Contributors'
p136
I1
sS'Movies'
p137
I2
sS'themenewsheadlines'
p138
I2
sS'Photo'
p139
I1
sS'levels'
p140
I1
sS'tdocumentcreateElementscripttasync0ttypetextjavascriptvar'
p141
I1
sS'Carry'
p142
I1
sS'0667'
p143
I1
sS'windowmagnumwriteLogosmall'
p144
I1
sS'man\xe2\x80\x99s'
p145
I1
sS'Please'
p146
I1
sS'Fight'
p147
I3
sS'googletaggoogletaggoogletagcmdgoogletagcmdfunctionvar'
p148
I1
sS'top'
p149
I2
sS'0066'
p150
I1
sS'0067'
p151
I1
sS'0064'
p152
I1
sS'nythpGiftguide'
p153
I8
sS'0063'
p154
I1
sS'0061'
p155
I1
sS'Psychotherapy'
p156
I1
sS'0069'
p157
I1
sS'Search'
p158
I6
sS'B'
p159
I2
sS'staticPath'
p160
I2
sS'StDeniscreditTyler'
p161
I1
sS'TRIP'
p162
I1
sS'Code'
p163
I1
sS'ireturnnew'
p164
I1
sS'oet1nreturn'
p165
I1
sS'httpstatic01nytcomvideovhsbuildvhs2xmin'
p166
I1
sS'Version'
p167
I1
sS'Sea'
p168
I1
sS'realestate'
p169
I1
sS'messagebed'
p170
I1
sS'we\xe2\x80\x99ve'
p171
I1
sS'E2E2E2'
p172
I1
sS'tevar'
p173
I1
sS'Crab'
p174
I1
sS'EuroTrump'
p175
I1
sS'\xe2\x80\x9980s'
p176
I1
sS'raidcreditJacky'
p177
I1
sS'Rate'
p178
I1
sS'Ask'
p179
I2
sS'StDenys'
p180
I2
sS'StDenisshortThe'
p181
I1
sS'Chappatte'
p182
I1
sS'Alabama'
p183
I1
sS'aenfececoncatnfunction'
p184
I1
sS'2'
p185
I3
sS'Exploitation'
p186
I1
sS'Scene'
p187
I1
sS'QA'
p188
I1
sS'Single'
p189
I1
sS'Election'
p190
I1
sS'Its'
p191
I1
sS'FARHAD'
p192
I1
sS'Congressional'
p193
I1
sS'nythpHideKickers'
p194
I1
sS'headline'
p195
I1
sS'Bid'
p196
I1
sS'Amazon'
p197
I2
sS'Free'
p198
I1
sS'Blasio'
p199
I1
sS'Account'
p200
I1
sS'Turns'
p201
I1
sS'de'
p202
I2
sS'Reputation'
p203
I1
sS'Isn\xe2\x80\x99t'
p204
I1
sS'countries'
p205
I1
sS'Whites'
p206
I1
sS'Over'
p207
I2
sS'416'
p208
I1
sS'Nets'
p209
I1
sS'ALEXANDER'
p210
I1
sS'Jackson'
p211
I1
sS'textdecoration'
p212
I3
sS'rreturnvar'
p213
I1
sS'sporadic'
p214
I1
sS'Dogs'
p215
I1
sS'Quarterback'
p216
I1
sS'said'
p217
I1
sS'05'
p218
I6
sS'away'
p219
I2
sS'Rise'
p220
I2
sS'actionlink'
p221
I1
sS'Water'
p222
I1
sS'nythpSplitCode'
p223
I6
sS'aactive'
p224
I2
sS'cordoned'
p225
I2
sS'Roundup'
p226
I1
sS'Settings'
p227
I1
sS'Fake'
p228
I1
sS'paddingtop'
p229
I2
sS'OpEd'
p230
I7
sS'Bronx'
p231
I1
sS'news'
p232
I1
sS'Dance'
p233
I3
sS'Kristaps'
p234
I1
sS'KAUFMAN'
p235
I1
sS'Classifieds'
p236
I1
sS'Syrian'
p237
I1
sS'height'
p238
I4
sS'Closed'
p239
I1
sS'Counterattack'
p240
I1
sS'Gives'
p241
I1
sS'targeting'
p242
I1
sS'been'
p243
I2
sS'Early'
p244
I1
sS'Chance'
p245
I1
sS'much'
p246
I1
sS'Some\xe2\x80\x99'
p247
I1
sS'Groups'
p248
I1
sS'loft'
p249
I1
sS'Voice'
p250
I1
sS'Rocker'
p251
I2
sS'\xe2\x80\x98I\xe2\x80\x99'
p252
I1
sS'has'
p253
I1
sS'Manage'
p254
I1
sS'Billions'
p255
I1
sS'Culture'
p256
I1
sS'near'
p257
I3
sS'0074'
p258
I1
sS'anchor'
p259
I1
sS'Steinem'
p260
I3
sS'3px'
p261
I4
sS'seven'
p262
I2
sS'Menu'
p263
I1
sS'Bush'
p264
I1
sS'Here\xe2\x80\x99s'
p265
I1
sS'LEARN'
p266
I1
sS'id'
p267
I4
sS'TimesimagecropslargeHorizontal375height250width375urlhttpstatic01nytcomimages20151119world19ParisSS1219ParisSS12largeHorizontal375v3jpgurlslideshow20151118worldeuropeanearlymorningraidnorthofpariss19ParisSS12htmlshorturlhttpnytims1kEoPk4approvedforsyndicationtruedataid100000004044207slideurl19ParisSS11imagetypephotocaptionfullThe'
p268
I1
sS'Bolder'
p269
I1
sS'Stop'
p270
I1
sS'Ramps'
p271
I1
sS'Zimbabwe'
p272
I1
sS'President'
p273
I2
sS'raid'
p274
I10
sS'Room'
p275
I2
sS'h6active'
p276
I3
sS'Home'
p277
I4
sS'siteindexbrandinglink'
p278
I1
sS'SHEAR'
p279
I1
sS'programs'
p280
I1
sS'Mind'
p281
I1
sS'spanablayout'
p282
I2
sS'801'
p283
I1
sS'left'
p284
I3
sS'Brawn'
p285
I1
sS'terrorist'
p286
I3
sS'previous'
p287
I1
sS'Reform'
p288
I1
sS'had'
p289
I2
sS'tentreturn'
p290
I1
sS'News'
p291
I5
sS'Debt'
p292
I2
sS'Building'
p293
I2
sS'D'
p294
I1
sS'Restaurant'
p295
I1
sS'James'
p296
I1
sS'Taking'
p297
I1
sS'Morning'
p298
I1
sS'oamarkdomContentifunction'
p299
I1
sS'background'
p300
I6
sS'mediaphotomediumthumb'
p301
I2
sS'Wine'
p302
I1
sS'Art'
p303
I6
sS'Trump'
p304
I1
sS'Newsletters'
p305
I1
sS'21px'
p306
I3
sS'Bezos'
p307
I1
sS'Lorde'
p308
I1
sS'anythpBriefingNewsletterSignup'
p309
I1
sS'Preserved'
p310
I1
sS'right'
p311
I3
sS'people'
p312
I6
sS'gunfireshortSoldiers'
p313
I1
sS'Suspect'
p314
I2
sS'Between'
p315
I1
sS'Off'
p316
I3
sS'enemies'
p317
I1
sS'Poker'
p318
I1
sS'bottom'
p319
I1
sS'h3containsHoliday'
p320
I1
sS'Safe'
p321
I2
sS'backgroundposition'
p322
I2
sS'429'
p323
I1
sS'denied'
p324
I1
sS'Chris'
p325
I1
sS'He'
p326
I1
sS'bold'
p327
I1
sS'Cafes'
p328
I1
sS'Mortgages'
p329
I1
sS'Place'
p330
I4
sS'AURELIEN'
p331
I1
sS'losing'
p332
I1
sS'0px'
p333
I9
sS'First'
p334
I5
sS'ltie10'
p335
I9
sS'attacks'
p336
I6
sS'Cheap'
p337
I1
sS'Pregnancy'
p338
I2
sS'islands'
p339
I1
sS'sectionopinion'
p340
I2
sS'Birds'
p341
I1
sS'raised'
p342
I1
sS'Lovers'
p343
I2
sS'Missed'
p344
I1
sS'Blacks'
p345
I1
sS'Make'
p346
I2
sS'float'
p347
I4
sS'Insider'
p348
I3
sS'Draft'
p349
I3
sS'Laden\xe2\x80\x99'
p350
I1
sS'Martha'
p351
I2
sS'ISIS'
p352
I8
sS'initial'
p353
I1
sS'Indiscriminate'
p354
I1
sS'width'
p355
I1
sS'NBA'
p356
I1
sS'optsvariation'
p357
I1
sS'Column'
p358
I3
sS'Invest'
p359
I1
sS'Defeat'
p360
I1
sS'true'
p361
I1
sS'Suburban'
p362
I1
sS'NaegelenReutersimagecropslargeHorizontal375height250width375urlhttpstatic01nytcomimages20151119worldeurope19ParisSS1019ParisSS10largeHorizontal375jpgurlslideshow20151118worldeuropeanearlymorningraidnorthofpariss19ParisSS10htmlshorturlhttpnytims1PzIluNapprovedforsyndicationtruedataid100000004044269slideurl19ParisSS12imagetypephotocaptionfullWatching'
p363
I1
sS'TA\xc3\x8fA'
p364
I1
sS'tnvar'
p365
I1
sS'20px'
p366
I1
sS'Dissidents'
p367
I1
sS'Carson'
p368
I1
sS'StDenis'
p369
I8
sS'PaperVideo'
p370
I1
sS'libefore'
p371
I1
sS'Chef'
p372
I1
sS'when'
p373
I1
sS'Andrew'
p374
I2
sS'14px'
p375
I3
sS'Pages'
p376
I1
sS'football'
p377
I1
sS'transported'
p378
I2
sS'explosions'
p379
I1
sS'backgroundsize'
p380
I1
sS'longer'
p381
I1
sS'Estate'
p382
I4
sS'Win'
p383
I1
sS'time'
p384
I1
sS'Roger'
p385
I1
sS'raidshortPolice'
p386
I1
sS'Cadillac\xe2\x80\x99s'
p387
I1
sS'Today'
p388
I1
sS'0'
p389
I17
sS'Day'
p390
I2
sS'Sheds'
p391
I1
sS'Tech'
p392
I2
sS'Where'
p393
I1
sS'ahover'
p394
I2
sS'Global'
p395
I1
sS'div'
p396
I2
sS'Debate'
p397
I2
sS'says'
p398
I1
sS'detonated'
p399
I2
sS'trend'
p400
I1
sS'Frank'
p401
I1
sS'Rich'
p402
I1
sS'Finding'
p403
I2
sS'a81817'
p404
I1
sS'Rides'
p405
I1
sS'Seeks'
p406
I1
sS'drinks'
p407
I1
sS'inlineblock'
p408
I5
sS'Subscriptions'
p409
I5
sS'Opulent'
p410
I1
sS'Ford'
p411
I1
sS'shared'
p412
I1
sS'Along'
p413
I1
sS'Me'
p414
I2
sS'40px'
p415
I1
sS'upgrade'
p416
I1
sS'margintop'
p417
I5
sS'Times'
p418
I13
sS'Amazon\xe2\x80\x99s'
p419
I1
sS'topnews'
p420
I5
sS'Sees'
p421
I1
sS'America\xe2\x80\x99s'
p422
I1
sS'MM'
p423
I1
sS'BAB8B3'
p424
I1
sS'Dead'
p425
I3
sS'Your'
p426
I4
sS'navigation'
p427
I2
sS'Said'
p428
I3
sS'useful'
p429
I1
sS'Defend'
p430
I1
sS'When'
p431
I2
sS'foundationmain'
p432
I2
sS'0875'
p433
I1
sS'nrrequirereturn'
p434
I1
sS'Dies'
p435
I5
sS'peopleshortPolice'
p436
I1
sS'helvetica'
p437
I2
sS'075rem'
p438
I1
sS'Lunch'
p439
I3
sS'YoungAdult'
p440
I1
sS'optspoll'
p441
I1
sS'Deports'
p442
I1
sS'sharing'
p443
I1
sS'ImagesimagecropslargeHorizontal375height250width375urlhttpstatic01nytcomimages20151119world19ParisSS219ParisSS2largeHorizontal375jpgurlslideshow20151118worldeuropeanearlymorningraidnorthofpariss19ParisSS2htmlshorturlhttpnytims1kE5zTIapprovedforsyndicationtruedataid100000004044077slideurl19ParisSS7imagetypephotocaptionfullLocal'
p444
I1
sS'F'
p445
I1
sS'Public'
p446
I2
sS'HipHop'
p447
I1
sS'ignorant'
p448
I1
sS'Time'
p449
I1
sS'Retail'
p450
I1
sS'Bet'
p451
I3
sS'FD8249'
p452
I2
sS'Duke'
p453
I1
sS'Celebrations'
p454
I1
sS'timesvideo'
p455
I1
sS'Family'
p456
I1
sS'Pacific'
p457
I1
sS'Down'
p458
I1
sS'urlhttpgraphics8nytimescompackagesimageshomepagebriefingsdogearsmpng'
p459
I1
sS'can'
p460
I2
sS'believed'
p461
I1
sS'Our'
p462
I1
sS'Children'
p463
I2
sS'Ethnicity'
p464
I1
sS'1980s'
p465
I1
sS'ureturn'
p466
I1
sS'editiondomestic'
p467
I1
sS'Terms'
p468
I2
sS'discussion'
p469
I1
sS'Ginsburg'
p470
I3
sS'1'
p471
I19
sS'8px'
p472
I3
sS'Why'
p473
I1
sS'ANDREW'
p474
I1
sS'alerticon'
p475
I1
sS'applications'
p476
I12
sS'shuffleRecommendations'
p477
I1
sS'Editorials'
p478
I1
sS'data'
p479
I2
sS'man'
p480
I2
sS'Coal'
p481
I1
sS'Series'
p482
I2
sS'Breakers'
p483
I1
sS'Bader'
p484
I3
sS'tutoring'
p485
I1
sS'opts'
p486
I2
sS'typical'
p487
I1
sS'httpstatic01nytcomjs2buildvideoplayersextended20appRequire'
p488
I1
sS'Chi'
p489
I1
sS'Breaking'
p490
I2
sS'years'
p491
I1
sS'My'
p492
I2
sS'nbsp'
p493
I1
sS'Juggernaut'
p494
I1
sS'Cowin'
p495
I1
sS'White'
p496
I2
sS'LIZ'
p497
I2
sS'police'
p498
I9
sS'821760s'
p499
I1
sS'Defiance'
p500
I1
sS'World'
p501
I5
sS'Hiding'
p502
I1
sS'halt'
p503
I1
sS'WednesdaycreditKenzo'
p504
I1
sS'Modigliani'
p505
I1
sS'BLAISE'
p506
I1
sS'Choices'
p507
I1
sS'odocumentgetElementsByTagNamescript0oparentNodeinsertBeforeto'
p508
I1
sS'EDITORIAL'
p509
I2
sS'half'
p510
I1
sS'now'
p511
I1
sS'killed'
p512
I2
sS'developments'
p513
I2
sS'name'
p514
I1
sS'SUV'
p515
I1
sS'Skip'
p516
I2
sS'bursts'
p517
I1
sS'thttpsssplit0esslForHttpdprotothttpshttpamarkonloadivar'
p518
I1
sS'em'
p519
I1
sS'paddingleft'
p520
I3
sS'Except'
p521
I1
sS'Split'
p522
I1
sS'Save'
p523
I1
sS'Sedona'
p524
I1
sS'Added'
p525
I1
sS'container'
p526
I1
sS'liveupdatesflextypepromo'
p527
I1
sS'Joy'
p528
I1
sS'Journey'
p529
I1
sS'Key'
p530
I1
sS'avisitednythpBriefingNewsletterSignup'
p531
I1
sS'shows'
p532
I2
sS'50px'
p533
I2
sS'END'
p534
I1
sS'Estefan'
p535
I2
sS'Cashing'
p536
I1
sS'Cover'
p537
I1
sS'Cases'
p538
I1
sS'Security'
p539
I1
sS'httpstatic01nytcomjsmtr'
p540
I1
sS'toi0foro'
p541
I1
sS'place'
p542
I1
sS'flexData'
p543
I2
sS'Poorest'
p544
I1
sS'Asia'
p545
I1
sS'one'
p546
I1
sS'Black'
p547
I1
sS'open'
p548
I1
sS'city'
p549
I1
sS'little'
p550
I1
sS'tallWatchingModule'
p551
I1
sS'Notebook'
p552
I1
sS'Outpost'
p553
I1
sS'rehandleoe1ie2undefinedtypeof'
p554
I1
sS'ObjectdefinePropertyenvalueowritable0enumerable1ocatchireturn'
p555
I1
sS'padding'
p556
I9
sS'Trumps'
p557
I1
sS'copy'
p558
I1
sS'History'
p559
I2
sS'10'
p560
I3
sS'Seven'
p561
I1
sS'12'
p562
I1
sS'Love'
p563
I3
sS'18'
p564
I1
sS'require'
p565
I3
sS'Sensation'
p566
I1
sS'were'
p567
I7
sS'LISA'
p568
I1
sS'Advertise'
p569
I1
sS'browser'
p570
I1
sS'DE'
p571
I1
sS'Sites'
p572
I1
sS'Tight'
p573
I1
sS'say'
p574
I3
sS'Inquiry'
p575
I1
sS'Idaho'
p576
I1
sS'storythemesummary'
p577
I2
sS'De'
p578
I1
sS'Blame'
p579
I2
sS'\xe2\x80\x98La'
p580
I2
sS'DategetTimevar'
p581
I1
sS'15px'
p582
I1
sS'Articles'
p583
I2
sS'Rugby'
p584
I1
sS'normal'
p585
I1
sS'track'
p586
I1
sS'Embracing'
p587
I1
sS'remarks'
p588
I1
sS'GOP'
p589
I1
sS'WednesdaycreditFrancois'
p590
I1
sS'later'
p591
I1
sS'raidcreditYoan'
p592
I1
sS'raquo'
p593
I34
sS'tteelength0forvar'
p594
I1
sS'Recommendation'
p595
I2
sS'Research'
p596
I1
sS'Test'
p597
I2
sS'Wants'
p598
I1
sS'Woman'
p599
I2
sS'05625rem'
p600
I1
sS'only'
p601
I1
sS'Diary'
p602
I1
sS'Services'
p603
I1
sS'\xe2\x80\x98Sinatra'
p604
I1
sS'Magazine'
p605
I8
sS'nearly'
p606
I1
sS'Muscle'
p607
I1
sS'Instagram'
p608
I1
sS'nytcheltenhamshgeorgiatimes'
p609
I3
sS'summary'
p610
I3
sS'Anger'
p611
I1
sS'Education'
p612
I4
sS'Funding'
p613
I1
sS'Provide'
p614
I1
sS'1923'
p615
I2
sS'BOARD'
p616
I2
sS'arialhelveticasansserif'
p617
I1
sS'romantimesserif'
p618
I5
sS'Forgive'
p619
I2
sS'Jonah'
p620
I1
sS'3'
p621
I1
sS'letterspacing'
p622
I2
sS'Than'
p623
I1
sS'editioninternational'
p624
I1
sS'requirehttpstatic01nytcombijstagxtagxjs'
p625
I1
sS'raidcreditBenoit'
p626
I1
sS'abcolumn'
p627
I1
sS'arial'
p628
I2
sS'optslimit'
p629
I1
sS'many'
p630
I1
sS'Through'
p631
I1
sS'210px'
p632
I1
sS'among'
p633
I1
sS'nytcheltenhamgeorgiatimes'
p634
I1
sS'color'
p635
I10
sS'Travel'
p636
I4
sS'Note'
p637
I2
sS'nythpBriefings'
p638
I2
sS'article'
p639
I8
sS'storyheading'
p640
I4
sS'Events'
p641
I3
sS'homepage20151113101625jshomepage'
p642
I2
sS'longheld'
p643
I1
sS'Paid'
p644
I1
sS'Promos'
p645
I1
sS'BURNS'
p646
I1
sS'Prostate'
p647
I1
sS'500'
p648
I2
sS'633'
p649
I1
sS'shopping'
p650
I1
sS'ercalleotinoeoi1return'
p651
I1
sS'Pleasures'
p652
I1
sS'KIMIKO'
p653
I1
sS'suspected'
p654
I3
sS'ALDERMAN'
p655
I2
sS'windowlocationsearchindexOfportalvariantwatchingNoScroll'
p656
I1
sS'Stepping'
p657
I1
sS'Open'
p658
I1
sS'vest'
p659
I2
sS'Better'
p660
I1
sS'Charge'
p661
I1
sS'DIY'
p662
I1
sS'We\xe2\x80\x99re'
p663
I1
sS'different'
p664
I1
sS'Merchandising'
p665
I1
sS'Design'
p666
I4
sS'struggling'
p667
I1
sS'document'
p668
I1
sS'NYTDNYTD'
p669
I2
sS'Silver'
p670
I1
sS'I'
p671
I3
sS'Clear'
p672
I1
sS'collectionfirstchild'
p673
I2
sS'allocation'
p674
I12
sS'\xe2\x80\x98Rap'
p675
I1
sS'Jindal'
p676
I1
sS'Says'
p677
I2
sS'2015Today\xe2\x80\x99s'
p678
I1
sS'Rent'
p679
I1
sS'ccc'
p680
I1
sS'Loading'
p681
I3
sS'Service'
p682
I1
sS'displaynone'
p683
I2
sS'being'
p684
I1
sS'actress'
p685
I1
sS'Possible'
p686
I2
sS'coloredSharetools'
p687
I1
sS'Belgian'
p688
I3
sS'Jobs'
p689
I1
sS'Spot'
p690
I1
sS'it\xe2\x80\x99s'
p691
I2
sS'Applications'
p692
I1
sS'Getty'
p693
I2
sS'ccolumn'
p694
I6
sS'Follows'
p695
I1
sS'r1otn0iArray0o0or'
p696
I1
sS'Tackles'
p697
I1
sS'early'
p698
I2
sS'Tour'
p699
I1
sS'That\xe2\x80\x99s'
p700
I1
sS'nytfranklin'
p701
I3
sS'amp'
p702
I1
sS'Talk'
p703
I2
sS'Shot'
p704
I1
sS'Show'
p705
I2
sS'Blatter'
p706
I1
sS'Hacks'
p707
I1
sS'\xe4\xb8\xad\xe6\x96\x87'
p708
I1
sS'\xe2\x80\x98A'
p709
I1
sS'windowlocationsearchindexOfdisabletagx'
p710
I1
sS'uppercase'
p711
I6
sS'ereturneobjectnfunctionn1ewindow0ieofunctionreturn'
p712
I1
sS'Mark'
p713
I1
sS'Sloan'
p714
I1
sS'International'
p715
I3
sS'organizing'
p716
I3
sS'pinnedMasthead'
p717
I1
sS'poll'
p718
I1
sS'Government'
p719
I2
sS'legal'
p720
I1
sS'timetimestamp'
p721
I1
sS'ontexportset0calloexportsfunctionnvar'
p722
I1
sS'refer'
p723
I3
sS'Canvas'
p724
I1
sS'candidate\xe2\x80\x99s'
p725
I1
sS'Venetian'
p726
I1
sS'Druckerman'
p727
I2
sS'FISHER'
p728
I1
sS'shocking'
p729
I1
sS'requirehomepagemain'
p730
I2
sS'subdued'
p731
I1
sS'Paper'
p732
I1
sS'image'
p733
I1
sS'Yahoo'
p734
I1
sS'Pains'
p735
I1
sS'your'
p736
I2
sS'Store'
p737
I3
sS'paidPostDriver'
p738
I1
sS'area'
p739
I2
sS'hed'
p740
I1
sS'start'
p741
I1
sS'WednesdayshortFrench'
p742
I1
sS'Characters'
p743
I1
sS'Obama'
p744
I2
sS'Percent'
p745
I1
sS'Small'
p746
I1
sS'Guide'
p747
I4
sS'\xe2\x80\x98The'
p748
I1
sS'House'
p749
I2
sS'temperaments'
p750
I1
sS'Alterations'
p751
I1
sS'vhs'
p752
I1
sS'Close'
p753
I1
sS'bucked'
p754
I1
sS'aehandlece1uwindowfudocumente2var'
p755
I1
sS'Metaphor'
p756
I1
sS'videos'
p757
I1
sS'Space'
p758
I1
sS'Wordplay'
p759
I1
sS'an'
p760
I6
sS'How'
p761
I7
sS'Hot'
p762
I1
sS'Webber'
p763
I2
sS'Real'
p764
I5
sS'5'
p765
I1
sS'Purpose'
p766
I1
sS'you'
p767
I2
sS'Great'
p768
I2
sS'Country'
p769
I2
sS'videoPlaylist'
p770
I1
sS'important'
p771
I6
sS'CNN'
p772
I1
sS'wfloading'
p773
I1
sS'Myanmar'
p774
I1
sS'Transplants'
p775
I2
sS'nbspComments'
p776
I6
sS'scroll'
p777
I1
sS'HASSAN'
p778
I1
sS'onrcontextiegosnexportstgos7eSDFheefunctionennexportseQJf3ax3functionenfunction'
p779
I1
sS'all'
p780
I3
sS'Fix'
p781
I1
sS'Station'
p782
I1
sS'Critic\xe2\x80\x99s'
p783
I1
sS'apartment'
p784
I1
sS'icons'
p785
I1
sS'homepage'
p786
I6
sS'Eat'
p787
I1
sS'backgroundcolor'
p788
I1
sS'activities'
p789
I1
sS'woman'
p790
I2
sS'4em'
p791
I1
sS'far'
p792
I1
sS'Listings'
p793
I2
sS'Sale'
p794
I2
sS'Headers'
p795
I1
sS'1px'
p796
I8
sS'slocationsplit0pbeaconbamnrdataneterrorBeaconbamnrdatanetagentjsagentnewreliccomnr686minjsdnexportsoffsetioriginsfeaturesfaddEventListenerfaddEventListenerDOMContentLoadedo1uaddEventListenerloadt1fattachEventonreadystatechangeruattachEventonloadtamarkfirstbytei11223handleD5DuLPloaderfunctionennexportseG9z0Bl12functionenfunction'
p797
I1
sS'Unbuttoned'
p798
I1
sS'joined'
p799
I1
sS'flexDatainteractive'
p800
I1
sS'Chase'
p801
I1
sS'messengersuggestions'
p802
I5
sS'Log'
p803
I1
sS'Only'
p804
I2
sS'Easy'
p805
I1
sS'Welling'
p806
I1
sS'East'
p807
I1
sS'ribbon'
p808
I1
sS'rfcreateElementscriptrsrcdprotoeagentnparentNodeinsertBeforernfunction'
p809
I1
sS'what'
p810
I3
sS'Latin'
p811
I1
sS'Songwriter'
p812
I1
sS'rvar'
p813
I1
sS'raidshortA'
p814
I1
sS'rlistenerselengthremitentvoidrqrqerqerqepushnvar'
p815
I1
sS'windowNREUMNREUMNREUMinfobeaconbamnrdatanetlicenseKeyb5bcf2eba4applicationID4491446transactionNameYwFXZhRYVhAEVUZcX1pLYEAPFlkTFRhCXUAqueueTime0applicationTime472ttGuidagentTokenuserAttributeserrorBeaconbamnrdatanetagentjsagentnewreliccomnr686minjs'
p816
I1
sS'contrast'
p817
I1
sS'paddingbottom'
p818
I1
sS'Adapts'
p819
I1
sS'Gift'
p820
I3
sS'Charlie'
p821
I1
sS'NFL'
p822
I1
sS'hours'
p823
I1
sS'Contact'
p824
I1
sS'Gloves'
p825
I1
sS'Briefing'
p826
I2
sS'DALIA'
p827
I1
sS'search'
p828
I2
sS'ArtsBeat'
p829
I1
sS'margin'
p830
I2
sS'experience'
p831
I1
sS'Itself'
p832
I1
sS'action'
p833
I1
sS'\xe2\x80\x98He\xe2\x80\x99'
p834
I1
sS'Style'
p835
I4
sS'followed'
p836
I1
sS'family'
p837
I1
sS'nythpDeveloping'
p838
I1
sS'Top'
p839
I4
sS'Screening'
p840
I1
sS'Opinion'
p841
I12
sS'Explores'
p842
I1
sS'Explorer'
p843
I1
sS'Automobiles'
p844
I2
sS'Lives'
p845
I1
sS'taken'
p846
I2
sS'textalign'
p847
I3
sS'more'
p848
I1
sS'door'
p849
I2
sS'Philippines'
p850
I1
sS'Mass'
p851
I1
sS'broke'
p852
I2
sS'none'
p853
I17
sS'Now'
p854
I1
sS'sweeps'
p855
I1
sS'Coney'
p856
I1
sS'bordertop'
p857
I3
sS'326891'
p858
I1
sS'tentnn0undefinedtypeof'
p859
I1
sS'Chairman\xe2\x80\x99'
p860
I1
sS'matchHeight'
p861
I1
sS'Injury'
p862
I1
sS'respective'
p863
I1
sS'urlhttpgraphics8nytimescompackagesimageshomepagenewslettericonpng'
p864
I1
sS'conducted'
p865
I1
sS'Fall'
p866
I1
sS'Dreams'
p867
I1
sS'Television'
p868
I2
sS'Don'
p869
I1
sS'Arrested'
p870
I1
sS'Foreign'
p871
I2
sS'Continue'
p872
I1
sS'Syria'
p873
I1
sS'Lyft'
p874
I1
sS'Strengthen'
p875
I1
sS'ribbonChartbeatMostEmailed'
p876
I1
sS'tvar'
p877
I2
sS'Player'
p878
I1
sS'Democrats'
p879
I1
sS'httpstatic01nytcomjs2buildvideo20videofactoryrequire'
p880
I1
sS'Film'
p881
I1
sS'What'
p882
I1
sS'Arial'
p883
I1
sS'WednesdaycreditThomas'
p884
I1
sS'Nervous'
p885
I2
sS'through'
p886
I4
sS'bordertopcolor'
p887
I1
sS'its'
p888
I1
sS'ccolumncolumn'
p889
I3
sS'20'
p890
I2
sS'freturnonaemitncreateulistenersceventsffunction'
p891
I1
sS'splitlayout'
p892
I5
sS'Sound'
p893
I1
sS'waitSeconds'
p894
I1
sS'return'
p895
I3
sS'seeking'
p896
I1
sS'food'
p897
I1
sS'timestamp'
p898
I2
sS'demographics'
p899
I1
sS'flexDataeventid'
p900
I1
sS'georgiatimes'
p901
I1
sS'Lomu'
p902
I1
sS'Ethical'
p903
I1
sS'referheading'
p904
I1
sS'churchcreditJacky'
p905
I1
sS'windowNREUMNREUMnrrequirefunctionentfunction'
p906
I1
sS'Poll'
p907
I1
sS'End'
p908
I2
sS'weight'
p909
I1
sS'u2014'
p910
I2
sS'Sports'
p911
I4
sS'ATSV'
p912
I1
sS'Setting'
p913
I1
sS'operation'
p914
I2
sS'More'
p915
I8
sS'Subtleties'
p916
I1
sS'lu2019Estru00e9e'
p917
I1
sS'7'
p918
I2
sS'paidPostFivePack'
p919
I1
sS'reeecreatenexportstteerrqeeQJf3axhandlefunctionennexportseD5DuLPXL7HBIfunctionenfunction'
p920
I1
sS'4px'
p921
I4
sS'Ignore'
p922
I1
sS'ET'
p923
I13
sS'Male'
p924
I2
sS'Block'
p925
I2
sS'People'
p926
I1
sS'Tai'
p927
I1
sS'columnfirstchild'
p928
I2
sS'Hornets'
p929
I1
sS'rcompletefreadyStateofunction'
p930
I1
sS'EmailedMost'
p931
I1
sS'Speaks'
p932
I1
sS'died'
p933
I3
sS'story'
p934
I4
sS'Catalogs'
p935
I1
sS'Nature'
p936
I1
sS'recommendedLabelTest'
p937
I1
sS'militant'
p938
I3
sS'Merger'
p939
I2
sS'part'
p940
I1
sS'Todayrsquos'
p941
I2
sS'Road'
p942
I2
sS'throttle'
p943
I12
sS'Cancer'
p944
I1
sS'Hunger'
p945
I1
sS'Puzzle'
p946
I2
sS'httpa1nytcomassetshomepage20151113101625imagesfoundationlogos'
p947
I1
sS'Layouts'
p948
I1
sS'2020'
p949
I1
sS'Depend'
p950
I1
sS'nythpBriefingNewsletterSignup'
p951
I1
sS'nythpBreakingnythpNoRule'
p952
I1
sS'Peace'
p953
I1
sS'Julia'
p954
I1
sS'asetPageViewNameaddPageActionsetCustomAttributefinishedaddToTraceinlineHitnoticeErroroafunctionenwindowNREUMntapinnexportswindowNREUM112213handleD5DuLPgosfunctionennexportse7eSDFh7eSDFhfunctionenfunction'
p955
I1
sS'Equity'
p956
I1
sS'paths'
p957
I1
sS'Food'
p958
I7
sS'Brings'
p959
I1
sS'borderbottom'
p960
I7
sS'officers'
p961
I3
sS'Rome\xe2\x80\x99'
p962
I1
sS'Rewatching'
p963
I1
sS'Attacks'
p964
I1
sS'M'
p965
I1
sS'Kentucky'
p966
I1
sS'most'
p967
I1
sS'sponsored'
p968
I1
sS'70'
p969
I1
sS'Finds'
p970
I1
sS'NYTDFlexTypes'
p971
I4
sS'Hackers'
p972
I1
sS'clear'
p973
I1
sS'Uterine'
p974
I2
sS'Subscribe'
p975
I3
sS'weigh'
p976
I1
sS'ABDELLAH'
p977
I1
sS'Shrinking'
p978
I1
sS'Annadale'
p979
I1
sS'norepeat'
p980
I5
sS'Abaaoud'
p981
I2
sS'marginleft'
p982
I6
sS'Hill'
p983
I1
sS'ADEEL'
p984
I1
sS'Has'
p985
I4
sS'Poor'
p986
I1
sS'detaining'
p987
I2
sS'22px'
p988
I1
sS'documentreadyfunction'
p989
I2
sS'French'
p990
I7
sS'Pitfalls'
p991
I1
sS'NaegelenReutersimagecropslargeHorizontal375height250width375urlhttpstatic01nytcomimages20151119world19ParisSS1119ParisSS11largeHorizontal375jpgurlslideshow20151118worldeuropeanearlymorningraidnorthofpariss19ParisSS11htmlshorturlhttpnytims1O22IPTapprovedforsyndicationtruedataid100000004044074slideurl19ParisSS6imagetypephotocaptionfullFrench'
p992
I1
sS'equity'
p993
I1
sS'AgencyimagecropslargeHorizontal375height250width375urlhttpstatic01nytcomimages20151119world19ParisSS319ParisSS3largeHorizontal375jpgurlslideshow20151118worldeuropeanearlymorningraidnorthofpariss19ParisSS3htmlshorturlhttpnytims1PzzbOLapprovedforsyndicationtruerelatedassets'
p994
I1
sS'his'
p995
I1
sS'gains'
p996
I1
sS'nythpSplitCodelayout'
p997
I2
sS'Thanksgiving'
p998
I2
sS'Abdelhamid'
p999
I2
sS'during'
p1000
I7
sS'Trump\xe2\x80\x99s'
p1001
I1
sS'Minutes'
p1002
I1
sS'resolve'
p1003
I1
sS'Help'
p1004
I1
sS'France'
p1005
I2
sS'windowliveUpdatesFlextypeLoaded'
p1006
I2
sS'edinfoNREUMinfonfgetElementsByTagNamescript0ifeelicenseKeyeapplicationIDncpfunctionntn'
p1007
I1
sS'Towers'
p1008
I1
sS'Brains'
p1009
I1
sS'Part'
p1010
I1
sS'spanabtopregion'
p1011
I8
sS'\xe2\x80\x98Everybody'
p1012
I1
sS'Today\xe2\x80\x99s'
p1013
I1
sS'succeed'
p1014
I1
sS'testId'
p1015
I12
sS'lineheight'
p1016
I9
sS'Makes'
p1017
I2
sS'Dana'
p1018
I1
sS'last'
p1019
I1
sS'cashing'
p1020
I1
sS'became'
p1021
I1
sS'Superman'
p1022
I1
sS'TMQ'
p1023
I1
sS'simple'
p1024
I2
sS'SUSSMAN'
p1025
I1
sS'unfolded'
p1026
I1
sS'Way'
p1027
I2
sS'church'
p1028
I1
sS'War'
p1029
I1
sS'Play'
p1030
I2
sS'dataoptionswidth177height132jsonphttpjson8nytimescomslideshow20151118nytnowyourwednesdaybriefingslideshowjsonplinkhttpwwwnytimescom20151118nytnowlatestnewsparisattacktornadoeshtmlphotosphotourlcreditadvanceddelay5limitjsonp0renditiontargetoverrideabbreviatecreditstrue'
p1031
I1
sS'create'
p1032
I1
sS'strategy'
p1033
I1
sS'dataoptionseventid7600eventslugparisattacksliveupdatesheaderLATEST'
p1034
I1
sS'Plan'
p1035
I2
sS'slideshow'
p1036
I1
sS'else'
p1037
I1
sS'h3kicker'
p1038
I2
sS'GuideparentaddClassnythpGiftguide'
p1039
I1
sS'prices'
p1040
I1
sS'Drops'
p1041
I1
sS'16px'
p1042
I2
sS'Todays'
p1043
I3
sS'Journeys'
p1044
I1
sS'solid'
p1045
I7
sS'brilliant'
p1046
I1
sS'College'
p1047
I1
sS'raidshortLocal'
p1048
I1
sS'Market'
p1049
I1
sS'City'
p1050
I1
sS'nytfranklinhelveticaarialsansserif'
p1051
I1
sS'Racism'
p1052
I1
sS'Tempura'
p1053
I1
sS'Island'
p1054
I2
sS'9'
p1055
I1
sS'fefunction'
p1056
I1
sS'FrancePresse'
p1057
I2
sS'day'
p1058
I1
sS'About'
p1059
I3
sS'002'
p1060
I1
sS'moment'
p1061
I1
sS'000'
p1062
I6
sS'backgroundimage'
p1063
I2
sS'urlhttpwwwnytimescomslideshow20151118worldeuropeanearlymorningraidnorthofparishtmlheadlineAn'
p1064
I1
sS'Named'
p1065
I1
sS'Seek'
p1066
I1
sS'Tastes'
p1067
I1
sS'Economic'
p1068
I2
sS'Iceland'
p1069
I1
sS'Tools'
p1070
I1
sS'Living'
p1071
I3
sS'Fans'
p1072
I1
sS'Pamela'
p1073
I2
sS'Logue'
p1074
I1
sS'questions'
p1075
I1
sS'Internet'
p1076
I1
sS'Deputies'
p1077
I1
sS'Snowpacks'
p1078
I1
sS'advisers'
p1079
I1
sS'Readers'
p1080
I1
sS'Edsall'
p1081
I1
sS'Christopher'
p1082
I1
sS'input'
p1083
I1
sS'rObjectprototypehasOwnPropertynexportst13functionenfunction'
p1084
I1
sS'bin'
p1085
I1
sS'Longer'
p1086
I1
sS'Did'
p1087
I1
sS'St\xe2\x80\x99'
p1088
I1
sS'Lower'
p1089
I1
sS'nythpHideBylines'
p1090
I1
sS'modifications'
p1091
I1
sS'd'
p1092
I1
sS'Cohen'
p1093
I1
sS'Rising'
p1094
I2
sS'\xe2\x80\x98Predict'
p1095
I1
sS'velcroSocialFollow'
p1096
I1
sS'Lemon'
p1097
I1
sS'Candidates'
p1098
I1
sS'back'
p1099
I1
sS'homepage20151113101625jsshared'
p1100
I1
sS'Siena'
p1101
I1
sS'Email'
p1102
I1
sS'Daypart'
p1103
I1
sS'Hitchhiker'
p1104
I2
sS'nythpBreaking'
p1105
I3
sS'liveupdatesmodule'
p1106
I1
sS'elnupdateswidget7600elnsulsm'
p1107
I1
sS'Proxies'
p1108
I1
sS'SXSW'
p1109
I1
sS'David'
p1110
I1
sS'httpstatic01nytcomlivecoveragelive'
p1111
I1
sS'SolarCity'
p1112
I1
sS'borderbottomwidth'
p1113
I1
sS'block'
p1114
I1
sS'Baron'
p1115
I2
sS'NewsDeveloping'
p1116
I1
sS'Everything'
p1117
I1
sS'Flights'
p1118
I1
sS'Ruth'
p1119
I3
sS'Beard'
p1120
I1
sS'Driven'
p1121
I1
sS'Theismann'
p1122
I1
sS'borderbottomcolor'
p1123
I1
sS'live'
p1124
I1
sS'Side'
p1125
I1
sS'User'
p1126
I1
sS'Wanted'
p1127
I1
sS'Come'
p1128
I1
sS'hoped'
p1129
I1
sS'Opinionator'
p1130
I1
sS'Marriott'
p1131
I2
sS'raising'
p1132
I1
sS'Jeff'
p1133
I1
sS'Loan'
p1134
I2
sS'Murray'
p1135
I1
sS'Books'
p1136
I3
sS'Sense'
p1137
I1
sS'\xe2\x80\x98Democrats\xe2\x80\x99'
p1138
I1
sS'0012'
p1139
I1
sS'Knicks'
p1140
I2
sS'nytmmFadingSlideShow'
p1141
I2
sS'Defiant'
p1142
I1
sS'Terror'
p1143
I3
sS'New'
p1144
I11
sS'Upshot'
p1145
I1
sS'Map'
p1146
I1
sS'TV'
p1147
I2
sS'Mary'
p1148
I1
sS'application'
p1149
I1
sS'bcolumn'
p1150
I16
sS'Student'
p1151
I2
sS'eentvar'
p1152
I1
sS'pageManager'
p1153
I2
sS'Refugee'
p1154
I2
sS'AM'
p1155
I13
sS'Wednesday'
p1156
I4
sS'Cast'
p1157
I2
sS'Technology'
p1158
I1
sS'Portfolio'
p1159
I1
sS'Ad'
p1160
I1
sS'Weddings'
p1161
I1
sS'An'
p1162
I1
sS'2000'
p1163
I1
sS'summit'
p1164
I1
sS'HicksThe'
p1165
I1
sS'Newsletter'
p1166
I1
sS'having'
p1167
I1
sS'Sell'
p1168
I1
sS'results'
p1169
I1
sS'broader'
p1170
I1
sS'Corporate'
p1171
I1
sS'Business'
p1172
I4
sS'Seeking'
p1173
I2
sS'young'
p1174
I1
sS'getFlexData'
p1175
I2
sS'25px'
p1176
I1
sS'Buyer'
p1177
I1
sS'women'
p1178
I1
sS'Porzingis'
p1179
I1
sS'UPDATEShomepageFeedfalseinteractivefalsemaxitems5'
p1180
I2
sS'Helvetica'
p1181
I1
sS'Region'
p1182
I1
sS'P'
p1183
I1
sS'Myths'
p1184
I1
sS'functionrenew'
p1185
I1
sS'rtifntvar'
p1186
I1
sS'Index'
p1187
I1
sS'requireportalapp'
p1188
I1
sS'Long'
p1189
I1
sS'State'
p1190
I5
sS'Suit'
p1191
I1
sS'Teaching'
p1192
I1
sS'Maryland'
p1193
I1
sS'GRYNBAUM'
p1194
I1
sS'Sections'
p1195
I3
sS'Fatal'
p1196
I1
sS'\xe2\x80\x98Pike'
p1197
I1
sS'requiremap'
p1198
I1
sS'week\xe2\x80\x99s'
p1199
I1
sS'Numbers'
p1200
I1
sS'448'
p1201
I1
sS'Light'
p1202
I2
sS'explore'
p1203
I1
sS'PressimagecropslargeHorizontal375height250width375urlhttpstatic01nytcomimages20151119world19ParisSS419ParisSS4largeHorizontal375jpgurlslideshow20151118worldeuropeanearlymorningraidnorthofpariss19ParisSS4htmlshorturlhttpnytims1O1Hly3approvedforsyndicationtruedataid100000004044073slideurl19ParisSS5imagetypephotocaptionfullPolice'
p1204
I1
sS'Crackle\xe2\x80\x99s'
p1205
I1
sS'Technicolor'
p1206
I1
sS'ImagesimagecropslargeHorizontal375height250width375urlhttpstatic01nytcomimages20151119world19ParisSS619ParisSS6largeHorizontal375v2jpgurlslideshow20151118worldeuropeanearlymorningraidnorthofpariss19ParisSS6htmlshorturlhttpnytims1Yg4EqKapprovedforsyndicationtruedataid100000004044076slideurl19ParisSS4imagetypephotocaptionfullThe'
p1207
I1
sS'otifObjectdefinePropertyObjectkeystryreturn'
p1208
I1
sS'Chinese'
p1209
I1
sS'tenvar'
p1210
I1
sS'30'
p1211
I1
sS'shades'
p1212
I1
sS'18px'
p1213
I7
sS'residents'
p1214
I2
sS'Photography'
p1215
I1
sS'Decay'
p1216
I1
sS'Multimedia'
p1217
I2
sS'Trademark'
p1218
I1
sS'330'
p1219
I1
sS'Contributing'
p1220
I1
sS'Treatment'
p1221
I3
sS'Answer'
p1222
I1
sS'from'
p1223
I6
sS'Lend'
p1224
I1
sS'next'
p1225
I1
sS'Lens'
p1226
I1
sS'few'
p1227
I1
sS'Nomination'
p1228
I1
sS'Novel'
p1229
I1
sS'STYLING'
p1230
I2
sS'visibility'
p1231
I1
sS'Slide'
p1232
I1
sS'Editorial'
p1233
I3
sS'subscription'
p1234
I1
sS'Feedback'
p1235
I1
sS'Library'
p1236
I1
sS'Video'
p1237
I6
sS'Linklater\xe2\x80\x99s'
p1238
I1
sS'Envisioning'
p1239
I1
sS'Police'
p1240
I1
sS'httpstatic01nytcomjsauthgrowldefault'
p1241
I1
sS'Feature'
p1242
I1
sS'IAN'
p1243
I1
sS'US'
p1244
I5
sS'Policy'
p1245
I1
sS'varied'
p1246
I1
sS'HIV'
p1247
I1
sS'photospotregion'
p1248
I3
sS'ViewedRecommended'
p1249
I1
sS'tereturn'
p1250
I1
sS'iconbefore'
p1251
I1
sS'NYTABTEST'
p1252
I1
sS'Joel'
p1253
I2
sS'Myopia'
p1254
I1
sS'Letters'
p1255
I1
sS'r1onridiegosnexportstgos7eSDFhidfunctionennexportseXL7HBIG9z0Blfunctionenfunction'
p1256
I1
sS'Texts'
p1257
I1
sS'Politics'
p1258
I4
sS'httpa1nytcomassets'
p1259
I1
sS'Who'
p1260
I2
sS'aimed'
p1261
I2
sS'sfunction'
p1262
I1
sS'including'
p1263
I2
sS'looks'
p1264
I1
sS'Wave'
p1265
I1
sS'byline'
p1266
I2
sS'banner'
p1267
I1
sS'Friedman'
p1268
I1
sS'storythemefeature'
p1269
I3
sS'Brooks'
p1270
I1
sS'li'
p1271
I4
sS'fontfamily'
p1272
I13
sS'NYTABTESTengine'
p1273
I1
sS'2015'
p1274
I1
sS'paidPostFivePackMock'
p1275
I1
sS'2016'
p1276
I1
sS'ParissummaryThe'
p1277
I1
sS'Alerts'
p1278
I1
sS'simpleExtendedByline'
p1279
I1
sS'Stapleton'
p1280
I1
sS'auto'
p1281
I1
sS'\xe2\x80\x98SNL\xe2\x80\x99'
p1282
I1
sS'Can'
p1283
I5
sS'messagecontainer'
p1284
I1
sS'Social'
p1285
I1
sS'Strands'
p1286
I2
sS'transparent'
p1287
I1
sS'env'
p1288
I1
sS'Say'
p1289
I3
sS'Replica'
p1290
I1
sS'10px'
p1291
I3
sS'Arts'
p1292
I7
sS'From'
p1293
I5
sS'700'
p1294
I8
sS'urlhttpgraphics8nytimescomnewsgraphics20150225electionnavigationassetsimageselection2016logopng'
p1295
I1
sS'meta'
p1296
I1
sS'More\xe2\x80\x99'
p1297
I1
sS'cereturn'
p1298
I1
sS'Chronicling'
p1299
I1
sS'dawnshortThe'
p1300
I1
sS'China'
p1301
I4
sS'Nearly'
p1302
I1
sS'enoovar'
p1303
I1
sS'supports'
p1304
I1
sS'Cartoon'
p1305
I1
sS'roonooexportsreturn'
p1306
I1
sS'Corrections'
p1307
I1
sS'AsiaPacific'
p1308
I1
sS'spanablayoutlayout'
p1309
I1
sS'Topics'
p1310
I1
sS'FREYTASTAMURA'
p1311
I1
sS'keep'
p1312
I1
sS'ehttpsdocumentlocationprotocoltsrcehttpshttpwwwgoogletagservicescomtagjsgptjsvar'
p1313
I1
sS'Aides'
p1314
I1
sS'ntexportsiffunctiontypeof'
p1315
I1
sS'CarScent'
p1316
I1
sS'Review'
p1317
I11
sS'Yale'
p1318
I1
sS'scene'
p1319
I9
sS'Program'
p1320
I3
sS'North'
p1321
I1
sS'NY'
p1322
I2
sS'Powers'
p1323
I1
sS'requirefoundationmain'
p1324
I3
sS'654'
p1325
I1
sS'h6hover'
p1326
I3
sS'652'
p1327
I1
sS'Iraq'
p1328
I1
sS'evacuated'
p1329
I2
sS'Trophy'
p1330
I1
sS'Smash'
p1331
I1
sS'Letter'
p1332
I2
sS'Suspect\xe2\x80\x99s'
p1333
I1
sS'97px'
p1334
I1
sS'var'
p1335
I8
sS'fontsize'
p1336
I13
sS'foundationviewspagemanager'
p1337
I2
sS'Rivals'
p1338
I1
sS'arrestedshortWatching'
p1339
I1
sS'PressimagecropslargeHorizontal375height250width375urlhttpstatic01nytcomimages20151119world19ParisSS919ParisSS9largeHorizontal375v4jpgurlslideshow20151118worldeuropeanearlymorningraidnorthofpariss19ParisSS9htmlshorturlhttpnytims1S3LlNAapprovedforsyndicationtruedataid100000004044182slideurl19ParisSS10imagetypephotocaptionfullA'
p1340
I1
sS'Buyers\xc2\xa0Family'
p1341
I1
sS'Edition'
p1342
I1
sS'requirejquerynyt'
p1343
I2
sS'shortA'
p1344
I1
sS'getFlexDatadataoptions'
p1345
I1
sS'mediaslideshow'
p1346
I1
sS'false'
p1347
I1
sS'Richard'
p1348
I1
sS'Secret'
p1349
I1
sS'Writers'
p1350
I1
sS'have'
p1351
I4
sS'need'
p1352
I1
sS'Spas'
p1353
I1
sS'One'
p1354
I1
sS'border'
p1355
I2
sS'After'
p1356
I2
sS'Loyalty'
p1357
I2
sS'authmtr'
p1358
I1
sS'321'
p1359
I4
sS'which'
p1360
I1
sS'Blogs'
p1361
I1
sS'who'
p1362
I3
sS'scenes'
p1363
I1
sS'01'
p1364
I1
sS'Games'
p1365
I1
sS'Cabs'
p1366
I1
sS'masthead'
p1367
I1
sS'shortterm'
p1368
I1
sS'Predictive'
p1369
I1
sS'homepage20151113101625jsfoundation'
p1370
I1
sS'Some'
p1371
I1
sS'Donald'
p1372
I1
sS'nythpHideTimestamps'
p1373
I1
sS'wounded'
p1374
I1
sS'09'
p1375
I1
sS'Manheim'
p1376
I1
sS'Paris'
p1377
I15
sS'text'
p1378
I1
sS'0036'
p1379
I1
sS'0033'
p1380
I1
sS'TessierReutersimagecropslargeHorizontal375height250width375urlhttpstatic01nytcomimages20151119world19ParisSS719ParisSS7largeHorizontal375jpgurlslideshow20151118worldeuropeanearlymorningraidnorthofpariss19ParisSS7htmlshorturlhttpnytims1l51IP8approvedforsyndicationtruedataid100000004044071slideurl19ParisSS3imagetypephotocaptionfullFrench'
p1381
I1
sS'soldiers'
p1382
I2
sS'30px'
p1383
I1
sS'Elkes'
p1384
I2
sS'knowledge'
p1385
I1
sS'Undo'
p1386
I1
sS'should'
p1387
I1
sS'York'
p1388
I10
sS'5px'
p1389
I2
sS'he'
p1390
I2
sS'commentspanel'
p1391
I1
sS'Homes'
p1392
I2
sS'watching'
p1393
I1
sS'DategetTimeconcatiargumentsvar'
p1394
I1
sS'999'
p1395
I4
sS'Matsui'
p1396
I1
sS'Keep'
p1397
I1
sS'Pressphoto'
p1398
I1
sS'Stories'
p1399
I1
sS'129'
p1400
I2
sS'THE'
p1401
I2
sS'trucks'
p1402
I2
sS'o0oppupapplystreturn'
p1403
I1
sS'teams'
p1404
I1
sS'Experts'
p1405
I1
sS'she'
p1406
I1
sS'FIFA'
p1407
I1
sS'officials'
p1408
I1
sS'165rem'
p1409
I1
sS'NYTDFlexTypespushtargetFT100000004037217typeHPLiveUpdate3dataoptionseventid7600eventslugparisattacksliveupdatesheaderLATEST'
p1410
I1
sS'Sheen'
p1411
I1
sS'21rem'
p1412
I1
sS'Republican'
p1413
I2
sS'explosive'
p1414
I2
sS'2px'
p1415
I7
sS'fontstyle'
p1416
I1
sS'Remain'
p1417
I1
sS'Race'
p1418
I1
sS'Subway'
p1419
I1
sS'Raid'
p1420
I3
sS'Osama'
p1421
I1
sS'Camryn'
p1422
I2
sS'functionPortal'
p1423
I1
sS'\xe2\x80\x98Abyss\xe2\x80\x99'
p1424
I1
sS'Campus'
p1425
I2
sS'Workplace'
p1426
I1
sS'unclear'
p1427
I1
sS'MANJOO'
p1428
I1
sS'Her'
p1429
I1
sS'Music'
p1430
I5
sS'Struggling'
p1431
I1
sS'Asks'
p1432
I1
sS'trajectory'
p1433
I1
sS'Anthony\xe2\x80\x99'
p1434
I1
sS'baseUrl'
p1435
I1
sS'Brooklyn'
p1436
I1
sS'Obituaries'
p1437
I2
sS'Thailand'
p1438
I1
sS'Expand'
p1439
I3
sS'EarlyMorning'
p1440
I1
sS'f8e9d2'
p1441
I1
sS'liveupdateflextypev4js'
p1442
I1
sS'swarmed'
p1443
I2
sS'backgroundrepeat'
p1444
I2
sS'runaroundRight'
p1445
I2
sS'kickers'
p1446
I1
sS'MoriAssociated'
p1447
I2
sS'bulk'
p1448
I1
sS'abortions'
p1449
I1
sS'Fact'
p1450
I1
sS'homes'
p1451
I2
sS'Force'
p1452
I1
sS'promotes'
p1453
I1
sS'nytfranklinarialhelveticasansserif'
p1454
I2
sS'Any'
p1455
I2
sS'MORE'
p1456
I1
sS'resident'
p1457
I2
sS'It8217s'
p1458
I1
sS'Literary'
p1459
I3
sS'vs'
p1460
I1
sS'You'
p1461
I6
sS'PREVOST'
p1462
I1
sS'Hope'
p1463
I1
sS'Policing'
p1464
I1
sS'Return'
p1465
I1
sS'Beat'
p1466
I3
sS'ntypeof'
p1467
I1
sS'NYTimescom'
p1468
I2
sS'Manheim\xe2\x80\x99s'
p1469
I1
sS'Car'
p1470
I1
sS'terrorism'
p1471
I1
sS'LILIA'
p1472
I1
sS'GABRIEL'
p1473
I1
sS'effect'
p1474
I1
sS'coaches'
p1475
I1
sS'Loses'
p1476
I1
sS'Gloria'
p1477
I3
sS'Grimes'
p1478
I1
sS'off'
p1479
I2
sS'center'
p1480
I2
sS'Staten'
p1481
I1
sS'fighting'
p1482
I2
sS'thought'
p1483
I1
sS'Fantasy'
p1484
I1
sS'Experiments'
p1485
I1
sS'Need'
p1486
I1
sS'Sunday'
p1487
I2
sS'Beloved'
p1488
I1
sS'NYTDFlexTypespushtargetFT100000004044254typeFadingSlideShowdataoptionswidth177height132jsonphttpjson8nytimescomslideshow20151118nytnowyourwednesdaybriefingslideshowjsonplinkhttpwwwnytimescom20151118nytnowlatestnewsparisattacktornadoeshtmlphotosphotourlcreditadvanceddelay5limitjsonp0renditiontargetoverrideabbreviatecreditstrue'
p1489
I1
sS'TribouillardAgence'
p1490
I1
sS'Company'
p1491
I1
sS'Friday'
p1492
I2
sS'Yielded'
p1493
I1
sS'Despite'
p1494
I1
sS'match'
p1495
I2
sS'Hits'
p1496
I2
sS'ValatEuropean'
p1497
I1
sS'Psychosis'
p1498
I2
sS'Camels'
p1499
I1
sS'five'
p1500
I1
sS'know'
p1501
I1
sS'variants'
p1502
I12
sS'Throws'
p1503
I1
sS'Fashion'
p1504
I3
sS'like'
p1505
I1
sS'Within'
p1506
I2
sS'testName'
p1507
I12
sS'tryTypekitloadcatche'
p1508
I1
sS'become'
p1509
I1
sS'11px'
p1510
I4
sS'because'
p1511
I1
sS'12px'
p1512
I8
sS'Music\xe2\x80\x99'
p1513
I1
sS'Crossword'
p1514
I4
sS'Editor'
p1515
I3
sS'Cooperation'
p1516
I1
sS'home'
p1517
I2
sS'Terrorism'
p1518
I2
sS'Columnists'
p1519
I1
sS'pthemecomments'
p1520
I1
sS'AheadparentaddClassnythpBriefings'
p1521
I1
sS'windowmagnumprocessFlagslimitFabrikSavemoreFollowSuggestionsunfollowCommentshomepageOpinionKickerCssfollowFeatureallTheEmphasesvideoVHSCovervideoVHSHomepageCoveradditionalOpinionRegionshpViewabilityminiNavCountnewsEventHierarchyfreeTrialinsiderLaunch'
p1522
I1
sS'Inside'
p1523
I2
sS'MICHAEL'
p1524
I2
sS'Up'
p1525
I1
sS'Us'
p1526
I2
sS'Blocks'
p1527
I1
sS'Microsoft'
p1528
I1
sS'after'
p1529
I1
sS'about'
p1530
I1
sS'Sounds'
p1531
I1
sS'hpHeader'
p1532
I25
sS'column'
p1533
I2
sS'withdrew'
p1534
I1
sS'urged'
p1535
I1
sS'nythpDaypartRegion'
p1536
I6
sS'dwrite'
p1537
I3
sS'windownewrelicnewrelicwindowNREUMvar'
p1538
I1
sS'Hawks'
p1539
I1
sS'h6'
p1540
I28
sS'Two'
p1541
I2
sS'h5'
p1542
I2
sS'Most'
p1543
I1
sS'SamsonAgence'
p1544
I1
sS'Child'
p1545
I1
sS'dawncreditFrancois'
p1546
I1
sS'November'
p1547
I1
sS'function'
p1548
I12
sS'north'
p1549
I2
sS'HIGGINS'
p1550
I1
sS'Science'
p1551
I3
sS'Well'
p1552
I2
sS'Frog'
p1553
I1
sS'eat'
p1554
I1
sS'\xe2\x80\x94'
p1555
I3
sS'whether'
p1556
I1
sS'\xe2\x80\x98SPQR'
p1557
I1
sS'productionpublished'
p1558
I1
sS'display'
p1559
I10
sS'\xc2\xbb'
p1560
I1
sS'Portalcreatenytinthpwatching'
p1561
I1
sS'marginbottom'
p1562
I9
sS'Lake'
p1563
I1
sS'maxHeight'
p1564
I1
sS'urlhttpi1nytcomimagesiconsiconalert12x12a81817png'
p1565
I1
sS'Explosion'
p1566
I1
sS'Centered'
p1567
I2
sS'Million'
p1568
I2
sS'Platini'
p1569
I1
sS'40'
p1570
I2
sS'Delivery'
p1571
I1
sS'Islamic'
p1572
I2
sS'Know'
p1573
I1
sS'\xe2\x80\x98War'
p1574
I1
sS'HPHEADER'
p1575
I2
sS'history\xe2\x80\x9d'
p1576
I1
sS'Remove'
p1577
I1
sS'rObjectprototypehasOwnPropertynexportstD5DuLPfunctionenfunction'
p1578
I1
sS'l8217Estr233e'
p1579
I1
sS'Lose'
p1580
I1
sS'Tees\xe2\x80\x99'
p1581
I1
sS'friends'
p1582
I1
sS'Page'
p1583
I1
sS'South'
p1584
I2
sS'Stewart'
p1585
I2
sS'pocketregion'
p1586
I6
sS'Site'
p1587
I3
sS'Private'
p1588
I1
sS'Sleep'
p1589
I1
sS'searched'
p1590
I2
sS'Refined'
p1591
I1
s.