(dp0
S'cmU0d1asvbfunctionbcdefhklgnswitchccase'
p1
I1
sS'rgba00003boxshadowinset'
p2
I1
sS'DategetTimegooglelogfunctionabdegagooglelogUrlabdegifabnew'
p3
I1
sS'gjucvar'
p4
I1
sS'\xb0\xcb\xbb\xf6srchGoogle'
p5
I1
sS'20pxtextdecorationnonewhitespacenowrapxbtncolor999cursorpointerfontsize23pxlineheight5pxpaddingtop5pxpadipadding0'
p6
I1
sS'1pxbordercolorccc'
p7
I1
sS'4pxmarginleft4pxinputfontfamilyinheritagb1agb2agb3agb4color11c'
p8
I1
sS'\xbc\xb3\xc1\xa4'
p9
I1
sS'\xb4\xf5\xba\xb8\xb1\xe2'
p10
I1
sS'\xb4\xf5\xbf\xed'
p11
I1
sS'YouTube'
p12
I1
sS'0'
p13
I7
sS'\xc5\xbd\xbb\xf6'
p14
I1
sS'iesgfalsedocumentbodyonload'
p15
I1
sS'\xb7\xce\xb1\xd7\xc0\xce'
p16
I1
sS'2015'
p17
I1
sS'bgpdspdaehslifwindowgbarwindowgbarupreturn1forvar'
p18
I1
sS'\xc7\xd1\xb1\xb9'
p19
I1
sS'\xc1\xf6\xbf\xec\xb1\xe2dym\xc0\xcc\xb0\xcd\xc0\xbb'
p20
I1
sS'basyaaowaovaaoNTaoAareturnicb'
p21
I1
sS'allgb1height22pxmarginright5emverticalaligntopgbarfloatleftagb1agb4textdecorationunderline'
p22
I1
sS'arialsansserifverticalaligntoplsbactivebackgroundccclstfocusoutlinenonetiahwidth458pxfunctionvar'
p23
I1
sS'999'
p24
I2
sS'rgba00003mozboxshadowinset'
p25
I1
sS'3079edbackgroundcolor4d90febackgroundimagewebkitgradientlinearleft'
p26
I1
sS'1px'
p27
I3
sS'rgba00003pmolnk'
p28
I1
sS'cbwindowsetTimeoutfunctionvar'
p29
I1
sS'repeatxbordernonecolor000cursorpointerheight30pxmargin0outline0font15px'
p30
I1
sS'bottomfrom4d90feto357ae8backgroundimagewebkitlineargradienttop4d90fe357ae8backgroundimagemozlineargradienttop4d90fe357ae8backgroundimagemslineargradienttop4d90fe357ae8backgroundimageolineargradienttop4d90fe357ae8backgroundimagelineargradienttop4d90fe357ae8filterprogidDXImageTransformMicrosoftgradientstartColorStr4d90feEndColorStr357ae8kdbuttonsubmitactivewebkitboxshadowinset'
p31
I1
sS'Feeling'
p32
I1
sS'cchasOwnPropertyedpushcedpushbwritedjoinbcloseavJafunctionbccavWagooglegooglemlgooglemlErrorogcdr1causetimeoutbcontentWindowavGbbwindowsetTimeoutfunctionavJabc1avYaavGbfunctionbdocumentbodyremoveChildbavFbfunctionbavpbbloadfunctionavJab0avpbfunctionbcdbaddEventListenerbaddEventListenercd1battachEventbattachEventoncdvar'
p33
I1
sS'arialsansserifgsfsfont17px'
p34
I1
sS'windownif'
p35
I1
sS'10pxpadtpadding5px'
p36
I1
sS'acolorfffdisplayinlineblockfontweightboldpadding5px'
p37
I1
sS'arialsansserifdsdisplayinlineboxdisplayinlineblockmargin3px'
p38
I1
sS'avavYa50avWa10avFabodyavEb0avHbfunctionbcvar'
p39
I1
sS'\xb1\xe2\xb7\xcfu003Cau003E\xbf\xa1\xbc\xad'
p40
I1
sS'\xc3\xa3\xc0\xb8\xbc\xcc\xb3\xaa\xbf\xe4lckyI\xa1\xafm'
p41
I1
sS'\xc8\xaf\xb0\xe6'
p42
I1
sS'0tdlineheight8emgacm'
p43
I1
sS'importantsblcpaddingtop5pxsblc'
p44
I1
sS'mVgg1llhh0kkasRqann0aswbehk1lgnasCbfunctionbcdefhbastacbaspaUaasrakadenullnullasCabfhvar'
p45
I1
sS'Gmail'
p46
I1
sS'sourceWebappPromoID291003var'
p47
I1
sS'eifgoogletimersgoogletimersloadtgoogletimersloadtxjslsnew'
p48
I1
sS'\xb4\xd9\xbf\xee\xb7\xce\xb5\xe5'
p49
I1
sS'showgooglepromostoastinitsourceWebappPromoIDsourceWebappGroupIDpayloadTypedismissalTypecookieMaxAgeSecimpressionCapsessionIndexgaiaXsrfTokenzwbkXsrfTokeninvisible0612'
p50
I1
sS'\xb4\xba\xbd\xba'
p51
I1
sS'12pxlsbbackgroundurlimagesnavlogo229png'
p52
I1
sS'bodytdaphfontfamily\xb1\xbc\xb8\xb2\xb5\xb8\xbf\xf2arialsansserifkofontsize9ptbodymargin0overflowyscrollgogpadding3px'
p53
I1
sS'davrbavubdbcavIbdavEbavFbdavIbfunctionbbavHab0forvar'
p54
I1
sS'tdpadding0tsbordercollapsecollapseemfontweightboldfontstylenormallstheight25pxwidth496pxgsfilstfont18px'
p55
I1
sS'tdlineheight17pxformmarginbottom20pxhcolor36cqcolor00cts'
p56
I1
sS'2f5bb7backgroundcolor357ae8backgroundimagewebkitgradientlinearleft'
p57
I1
sS'E5E5E5color666fontsize13pxpaddingbottom20pxpositionabsoluteright2pxtop3pxzindex986pmolnkborderradius2pxmozborderradius2pxwebkitborderradius2pxkdbuttonsubmitborder1px'
p58
I1
sS'gasCafunctionbcdifbvar'
p59
I1
sS'b276cdocumentgetElementByIdaoNVacbMathmaxbcoffsetWidthvar'
p60
I1
sS'dparseIntaowstyleright100aowstylevisibility2aowoffsetWidthdbdocumentbodyclientWidthhiddencatchegooglemle1causeaoPHOSWaoobfunctionvar'
p61
I1
sS'sessionIndex0var'
p62
I1
sS'\xb0\xb3\xc0\xce\xc1\xa4\xba\xb8\xc3\xeb\xb1\xde\xb9\xe6\xc4\xa7'
p63
I1
sS'aowcurrentStyleabsoluteaowcurrentStylepositiongooglepromostoastinitfunctionbcdefhklgnqrtryifaoobgooglemlErrorapa1causeaoPINITelse'
p64
I1
sS'2px'
p65
I3
sS'c9d7f1fontsize1pxgbhheight0positionabsolutetop24pxwidth100media'
p66
I1
sS'\xc7\xc1\xb7\xce\xb1\xd7\xb7\xa5\xba\xf1\xc1\xee\xb4\xcf\xbd\xba'
p67
I1
sS'gjwllocationfunction'
p68
I1
sS'\xc0\xcc\xb9\xcc\xc1\xf6'
p69
I1
sS'bnullaagetAttributebagetAttributeleidaaparentNodereturn'
p70
I1
sS'\xbe\xcb\xbe\xc6\xba\xb8\xb1\xe2oskt\xc0\xd4\xb7\xc2'
p71
I1
sS'0marginleft13pxfontsize11pxlsbbbackgroundeeebordersolid'
p72
I1
sS'iesgdocumentfdocumentfqfocusdocumentgbqfdocumentgbqfqfocus'
p73
I1
sS'baagetAttributebagetAttributeeidaaparentNodereturn'
p74
I1
sS'importantagb1agb4color00c'
p75
I1
sS'\xc1\xf6\xb5\xb5'
p76
I1
sS'nullgooglewlfunctionabtrygooglemlErrora1bcatchdgoogletimefunctionreturnnew'
p77
I1
sS'nbsp\xb0\xed\xb1\xde\xb0\xcb\xbb\xf6\xbe\xf0\xbe\xee\xb5\xb5\xb1\xb8\xb1\xa4\xb0\xed'
p78
I1
sS'\xb5\xe5\xb6\xf3\xc0\xcc\xba\xea'
p79
I1
sS'mnawindowgbarupdpcefbreakcase'
p80
I1
sS'\xc1\xa4\xba\xb8Googlecomcopy'
p81
I1
sS'topleft'
p82
I2
sS'awindowinnerWidthbwindowinnerHeightifabvar'
p83
I1
sS'g'
p84
I1
sS'\xc0\xa5'
p85
I1
sS'bgooglehttpsfunctionreturnhttpswindowlocationprotocolgooglemlfunctionreturn'
p86
I1
sS'times'
p87
I1
sS'gb4colordd8e27'
p88
I1
sS'importantbodybackgroundfffcolorblackacolor11ctextdecorationnoneahoveraactivetextdecorationunderlinefl'
p89
I1
sS'8px'
p90
I2
sS'261px'
p91
I1
sS'foundnullreturn'
p92
I1
sS'\xb5\xb5\xb1\xb8psrc\xb0\xcb\xbb\xf6\xbe\xee\xb0\xa1'
p93
I1
sS'cwindowdocumentdCSS1CompatccompatModecdocumentElementcbodyadclientWidthbdclientHeightabagooglecdowidthbgooglecdoheightgooglelogclient204atypibiwabihbeigooglekEIfunctionfunction'
p94
I1
sS'gb4color900'
p95
I1
sS'Imagevar'
p96
I1
sS'\xbb\xe8\xc1\xa6\xb5\xc7\xbe\xfa\xbd\xc0\xb4\xcf\xb4\xd9psrl\xbb\xe8\xc1\xa6sbit\xc0\xcc\xb9\xcc\xc1\xf6\xb7\xce'
p97
I1
sS'Luckylml\xc0\xda\xbc\xbc\xc8\xf7'
p98
I1
sS'hrefhistoryu003E\xc0\xa5'
p99
I1
sS'payloadType5var'
p100
I1
sS'Play'
p101
I1
sS'ggasOqabgasOQacgasOMadgasOmbegasOOafgasOXa1kgasOTklgasOlblifhgasOkbhelse'
p102
I1
sS'mUwindowgbarupspdbd10breakcase'
p103
I1
sS'mUfwindowgbarupgpdbd0breakcase'
p104
I1
sS'zwbkXsrfTokenvar'
p105
I1
sS'fnullswitchccase'
p106
I1
sS'hgooglegetEIeceih1bsearchleiegooglegetLEIecleiehgooglekEIcleigooglekEIadggen204atypictacadbcfzxgoogletimehttpitestagooglehttpsgooglemlErrora1srcaglmm1areturn'
p107
I1
sS'cookieMaxAgeSec2592000var'
p108
I1
sS'adisplayblockmargin2px'
p109
I1
sS'kansasDismissalEnabledfalsevar'
p110
I1
sS'u003Ca'
p111
I1
sS'importanttextalignrightgbhgbdbordertop1px'
p112
I1
sS'adisplayinlineblockmargin0'
p113
I1
sS'googlemlErrorknu1causeToken'
p114
I1
sS'gaia'
p115
I1
sS'ifaoNTtoastcountcqqaoNGatoastdpcrraoPdaoSbaovaeaoAacaoqbfaoEallgaoBalaoDakasAbaoweaoNGacasBbaowehaoNTcaoybao1elseasvbaoweaoNTcfaoSaoRabaoEaaoBaaoDaifntrywindowgbarupaehwindowresizeaoIacatchtwindowlolaoIawindowgbarelraoKawindowgbarelrwindowgbarelcwindowgbarelcaoKaao0windowgbarupslaoSaoPpoaaowacatchtgooglemlt1causeaoPINITaowafunctionvar'
p116
I1
sS'0color444padstextalignleftmaxwidth200px'
p117
I1
sS'mUcasyabcde1windowgbarupspdbdctoString0breakcase'
p118
I1
sS'agb2hovercolorfff'
p119
I1
sS'cmUnullwindowgbarupgpdbd01astafunctionbcdefhklvar'
p120
I1
sS'solid'
p121
I4
sS'sourceWebappGroupID5var'
p122
I1
sS'\xbc\xd6\xb7\xe7\xbc\xc7GoogleGoogle'
p123
I1
sS'mVgg1llhh0kkasRWnn0astbehkflgnasBbfunctionbcdefreturn'
p124
I1
sS'cccheight30pxlsbbdisplayblockftlfll'
p125
I1
sS'20px'
p126
I1
sS'dismissalType5var'
p127
I1
sS'mnafwindowgbarupgccereturn'
p128
I1
sS'c0ddbccifd'
p129
I1
sS'gaiaXsrfTokenvar'
p130
I1
sS'Chrome'
p131
I1
sS'\xb0\xcb\xbb\xf6'
p132
I1
sS'cwindowgbarrtldocumentbodyleftrightaowstylecbesmaoRaaoZapxaowstyletopaoapxcatchdgooglemld1causeaoPPTgooglepromostoastclfunctiontryaovamVasCbaoAaaoSaoRLaaoEaaoBaaoDawindowgbarupslaoSaoPpkaaowa1catchbgooglemlb1causeaoPCLgooglepromostoastcpcfunctiontryaowao1asDbaowaovaaoNGaaoAaaoqbaoSaoRWaoEaaoBaaoDawindowgbarupslaoSaoPpNaaowa1catchbgooglemlb1causeaoPCPCaoIafunctiontryifaowvar'
p133
I1
sS'pJbaMblKbcNadkahoaiWbnWxTbmaUbmcVbmiNbpaObpcQbpiSbpnRbpxPbpdXbgpaZbgpibgpnacgpxYbgpdaoaoNVahplogojbpmocntr2aoRab0W1La2aowdocumentgetElementByIdaoNjbaoRa16aoZa2aoa20googlepromosgooglepromosgooglepromostoastgooglepromostoastaofunctionbaowaowstyledisplaybnoneaowparentNodeaowparentNodestylepositionbrelativeaoKafunctionbtryifaowbbesbesmvar'
p134
I1
sS'windowgbarupreturn1return0aoybfunctionreturn'
p135
I1
sS'importantgbarheight22pxguserpaddingbottom7px'
p136
I1
sS'return'
p137
I1
sS'DategetTimegoogledljpxjsjskx3dxjshpenUSgtYYwGrdY5AOmx3dsbhedrtx3djdx3d1tx3dzcmsrsx3dACT90oGAXsWiz66gosNm5bWWu2DtoV21Lwxjsjskx3dxjshpenUSgtYYwGrdY5AOmx3dsbhedrtx3djdx3d1tx3dzcmsrsx3dACT90oGAXsWiz66gosNm5bWWu2DtoV21Lwgooglexjs1googlepmcsbheagentruecgentrueclientheirloomhpdhtruedsfltruehostgooglecokrisbh28jam0jsonptruemsgscibl\xb0\xcb\xbb\xf6\xbe\xee'
p138
I1
sS'k0var'
p139
I1
sS'srcimagesnavlogo229pngvar'
p140
I1
sS'lao1else'
p141
I1
sS'pmoabsbackgroundcolorfffborder1px'
p142
I1
sS'cfwindowgooglewindowgooglevelwindowgooglevelluwindowgooglevelluabsrcagooglelif1googlelogUrlfunctionabdegvar'
p143
I1
sS'agjwlhrefindexOfif0gbarguserfontsize13pxpaddingtop1px'
p144
I1
sS'bottomfrom4d90feto4787edbackgroundimagewebkitlineargradienttop4d90fe4787edbackgroundimagemozlineargradienttop4d90fe4787edbackgroundimagemslineargradienttop4d90fe4787edbackgroundimageolineargradienttop4d90fe4787edbackgroundimagelineargradienttop4d90fe4787edfilterprogidDXImageTransformMicrosoftgradientstartColorStr4d90feEndColorStr4787edkdbuttonsubmithoverborder1px'
p145
I1
sS'agoogleygooglexfunctionabgoogleyaidabreturn1googleloadfunctionabdgooglexidakfunctiongoogleloadabdvar'
p146
I1
sS'ecasPaasnbcdeauthuserdavHbbasTaeastbfunctionbcdefhkbastacbaspamaasramadfnulleasCabhkaswbfunctionbcdefhkbastacbaspaSaasraoadfenullasCabhkasDbfunctionbcdefhklgnswitchccase'
p147
I1
sS'acolor36cavisitedcolor551a8bagb1agb4textdecorationunderlineagb3hovertextdecorationnoneghead'
p148
I1
sS'mLb0U1V2na5asaspaSaimadUalasRqa0W1asraoa1ma2ka3asOMaaQagTclbukbtqapXapidOaeidmbatasTawindowlocationprotocolwwwgooglecomogpromosasPagasnbzasyafunctionbcdevar'
p149
I1
sS'Imagesrcsrc'
p150
I1
sS'adocumentcreateElementscriptasrcbdocumentgetElementByIdxjsdappendChilda0googledljpfunctionbagooglexjsubcagoogledljcfunctionwindowgooglexjsrmifgoogleygoogleyfirstifgooglexjswindowwindowwindowDumpExceptionfunctionethrow'
p151
I1
sS'documentimagesnew'
p152
I1
sS'GooglefunctionwindowgooglekEIeINMVrvTG4G20AT7hIwDQkEXPI37002864029815403110940326784033307403334440360054036527403801240392684040135404083640418374042786404279440432554043457404345840434924044606404495440454374045841404630440464004047318404776840480074048011404834740485964048854404890940492014049541404960440498134050735405076740508914050912405091540511544051714405183040520414052204405231240523204052440405277940532334053257405435583000968300270830027383002908502221850231285023158502341850245185024688502537850255285025548502690102000831020122510201418authuser0kscsc9c918f010googlekHLkofunctiongooglelcgoogleli0googlegetEIfunctionaforvar'
p153
I1
sS'cgooglelcfgooglelicfbbonerrorbonloadbonabortfunctiondelete'
p154
I1
sS'ifaowifemVlggooglemlErrortku1causezwieback'
p155
I1
sS'bgooglekEIgooglegetLEIfunctionaforvar'
p156
I1
sS'\xbe\xe0\xb0\xfcfunctionwindowgooglecdoheight0width0functionvar'
p157
I1
sS'important'
p158
I1
sS'nullf0parseIntf10asAbfunctionbcdreturn'
p159
I1
sS'\xb0\xcb\xbb\xf6ovrspsxb1pqrefoqtruerefpdtruerefspretruerfsscd10sce5stokHw3BsIAXEVpAQqyE0DKGN3W2iUdgoogleyfirstpushfunctionifgooglemedgooglemedinitgoogleinitHistorygooglemedhistoryifgooglejgooglejengooglejxiwindowsetTimeoutgooglejxi0'
p160
I1
sS'functionwindown'
p161
I1
sS'importantgbf'
p162
I1
sS'Google'
p163
I1
sS'e'
p164
I1
sS'\xb1\xe2\xb7\xcf'
p165
I1
sS'invisiblefalsewindowgbargbarupgbaruprgbaruprpayloadTypefunctionshowif'
p166
I1
sS'mnawindowgbarupiicefbreakcase'
p167
I1
sS'importantgbi'
p168
I1
sS'impressionCap25var'
p169
I1
sS'cfgooglelsifd1bsearcheivar'
p170
I1
sS'raquo\xc0\xa5'
p171
I1
sS'functionvar'
p172
I2
sS'\xc6\xed\xb8\xae\xc7\xd1'
p173
I1
s.